target datalayout = "e-m:e-p270:32:32-p271:32:32-p272:64:64-i64:64-i128:128-f80:128-n8:16:32:64-S128"
target triple = "x86_64-pc-linux-gnu"

%"struct.std::_Rb_tree_header" = type { %"struct.std::_Rb_tree_node_base", i64 }
%"struct.std::_Rb_tree_node_base" = type { i32, ptr, ptr, ptr }
%"class.std::__cxx11::basic_string" = type { %"struct.std::__cxx11::basic_string<char>::_Alloc_hider", i64, %union.anon }
%"struct.std::__cxx11::basic_string<char>::_Alloc_hider" = type { ptr }
%union.anon = type { i64, [8 x i8] }
%"struct.boost::read_graphviz_detail::parser" = type { %"struct.boost::read_graphviz_detail::tokenizer", %"class.std::vector", ptr, %"class.std::map", %"class.std::__cxx11::basic_string", i32, i64, %"class.std::set" }
%"struct.boost::read_graphviz_detail::tokenizer" = type { %"class.__gnu_cxx::__normal_iterator", %"class.__gnu_cxx::__normal_iterator", %"class.std::vector", %"class.boost::basic_regex", %"class.boost::basic_regex", %"class.boost::basic_regex", %"class.boost::basic_regex", %"class.boost::basic_regex", %"class.boost::basic_regex", %"class.boost::basic_regex" }
%"class.__gnu_cxx::__normal_iterator" = type { ptr }
%"class.boost::basic_regex" = type { %"class.std::shared_ptr" }
%"class.std::shared_ptr" = type { %"class.std::__shared_ptr" }
%"class.std::__shared_ptr" = type { ptr, %"class.std::__shared_count" }
%"class.std::__shared_count" = type { ptr }
%"class.std::vector" = type { %"struct.std::_Vector_base" }
%"struct.std::_Vector_base" = type { %"struct.std::_Vector_base<boost::read_graphviz_detail::token, std::allocator<boost::read_graphviz_detail::token>>::_Vector_impl" }
%"struct.std::_Vector_base<boost::read_graphviz_detail::token, std::allocator<boost::read_graphviz_detail::token>>::_Vector_impl" = type { %"struct.std::_Vector_base<boost::read_graphviz_detail::token, std::allocator<boost::read_graphviz_detail::token>>::_Vector_impl_data" }
%"struct.std::_Vector_base<boost::read_graphviz_detail::token, std::allocator<boost::read_graphviz_detail::token>>::_Vector_impl_data" = type { ptr, ptr, ptr }
%"class.std::map" = type { %"class.std::_Rb_tree" }
%"class.std::_Rb_tree" = type { %"struct.std::_Rb_tree<std::__cxx11::basic_string<char>, std::pair<const std::__cxx11::basic_string<char>, boost::read_graphviz_detail::subgraph_info>, std::_Select1st<std::pair<const std::__cxx11::basic_string<char>, boost::read_graphviz_detail::subgraph_info>>, std::less<std::__cxx11::basic_string<char>>>::_Rb_tree_impl" }
%"struct.std::_Rb_tree<std::__cxx11::basic_string<char>, std::pair<const std::__cxx11::basic_string<char>, boost::read_graphviz_detail::subgraph_info>, std::_Select1st<std::pair<const std::__cxx11::basic_string<char>, boost::read_graphviz_detail::subgraph_info>>, std::less<std::__cxx11::basic_string<char>>>::_Rb_tree_impl" = type { [8 x i8], %"struct.std::_Rb_tree_header" }
%"class.std::set" = type { %"class.std::_Rb_tree.6" }
%"class.std::_Rb_tree.6" = type { %"struct.std::_Rb_tree<std::pair<std::__cxx11::basic_string<char>, std::__cxx11::basic_string<char>>, std::pair<std::__cxx11::basic_string<char>, std::__cxx11::basic_string<char>>, std::_Identity<std::pair<std::__cxx11::basic_string<char>, std::__cxx11::basic_string<char>>>, std::less<std::pair<std::__cxx11::basic_string<char>, std::__cxx11::basic_string<char>>>>::_Rb_tree_impl" }
%"struct.std::_Rb_tree<std::pair<std::__cxx11::basic_string<char>, std::__cxx11::basic_string<char>>, std::pair<std::__cxx11::basic_string<char>, std::__cxx11::basic_string<char>>, std::_Identity<std::pair<std::__cxx11::basic_string<char>, std::__cxx11::basic_string<char>>>, std::less<std::pair<std::__cxx11::basic_string<char>, std::__cxx11::basic_string<char>>>>::_Rb_tree_impl" = type { [8 x i8], %"struct.std::_Rb_tree_header" }

; Function Attrs: mustprogress uwtable
define hidden void @_ZN5boost20read_graphviz_detail26parse_graphviz_from_stringERKNSt7__cxx1112basic_stringIcSt11char_traitsIcESaIcEEERNS0_13parser_resultEb(ptr noundef nonnull align 8 dereferenceable(32) %0, ptr noundef nonnull align 8 dereferenceable(128) %1, i1 noundef zeroext %2) #4 personality ptr @__gxx_personality_v0 {
  %4 = alloca ptr, align 8
  %5 = alloca ptr, align 8
  %6 = alloca i8, align 1
  %7 = alloca %"struct.boost::read_graphviz_detail::parser", align 8
  %8 = alloca ptr, align 8
  %9 = alloca i32, align 4
  store ptr %0, ptr %4, align 8, !tbaa !3
  store ptr %1, ptr %5, align 8, !tbaa !3
  %10 = zext i1 %2 to i8
  store i8 %10, ptr %6, align 1, !tbaa !10
  call void @llvm.lifetime.start.p0(i64 328, ptr %7) #3
  %11 = load ptr, ptr %4, align 8, !tbaa !3
  %12 = load ptr, ptr %5, align 8, !tbaa !3
  call void @_ZN5boost20read_graphviz_detail6parserC2ERKNSt7__cxx1112basic_stringIcSt11char_traitsIcESaIcEEERNS0_13parser_resultE(ptr noundef nonnull align 8 dereferenceable(328) %7, ptr noundef nonnull align 8 dereferenceable(32) %11, ptr noundef nonnull align 8 dereferenceable(128) %12)
  %13 = load i8, ptr %6, align 1, !tbaa !10, !range !12, !noundef !13
  %14 = trunc i8 %13 to i1
  invoke void @_ZN5boost20read_graphviz_detail6parser11parse_graphEb(ptr noundef nonnull align 8 dereferenceable(328) %7, i1 noundef zeroext %14)
          to label %15 unwind label %16

15:                                               ; preds = %3
  call void @_ZN5boost20read_graphviz_detail6parserD2Ev(ptr noundef nonnull align 8 dereferenceable(328) %7) #3
  call void @llvm.lifetime.end.p0(i64 328, ptr %7) #3
  ret void

16:                                               ; preds = %3
  %17 = landingpad { ptr, i32 }
          cleanup
  %18 = extractvalue { ptr, i32 } %17, 0
  store ptr %18, ptr %8, align 8
  %19 = extractvalue { ptr, i32 } %17, 1
  store i32 %19, ptr %9, align 4
  call void @_ZN5boost20read_graphviz_detail6parserD2Ev(ptr noundef nonnull align 8 dereferenceable(328) %7) #3
  call void @llvm.lifetime.end.p0(i64 328, ptr %7) #3
  br label %20

20:                                               ; preds = %16
  %21 = load ptr, ptr %8, align 8
  %22 = load i32, ptr %9, align 4
  %23 = insertvalue { ptr, i32 } poison, ptr %21, 0
  %24 = insertvalue { ptr, i32 } %23, i32 %22, 1
  resume { ptr, i32 } %24
}