; Function Attrs: mustprogress uwtable
define hidden void @_ZN5boost20read_graphviz_detail26parse_graphviz_from_stringERKNSt7__cxx1112basic_stringIcSt11char_traitsIcESaIcEEERNS0_13parser_resultEb(ptr noundef nonnull align 8 dereferenceable(32) %0, ptr noundef nonnull align 8 dereferenceable(128) %1, i1 noundef zeroext %2) local_unnamed_addr #3 personality ptr @__gxx_personality_v0 {
  %4 = alloca %"struct.boost::read_graphviz_detail::parser", align 8
  call void @llvm.lifetime.start.p0(i64 328, ptr nonnull %4) #29
  call void @_ZN5boost20read_graphviz_detail6parserC2ERKNSt7__cxx1112basic_stringIcSt11char_traitsIcESaIcEEERNS0_13parser_resultE(ptr noundef nonnull align 8 dereferenceable(328) %4, ptr noundef nonnull align 8 dereferenceable(32) %0, ptr noundef nonnull align 8 dereferenceable(128) %1)
  invoke void @_ZN5boost20read_graphviz_detail6parser11parse_graphEb(ptr noundef nonnull align 8 dereferenceable(328) %4, i1 noundef zeroext %2)
          to label %5 unwind label %6

5:                                                ; preds = %3
  call void @_ZN5boost20read_graphviz_detail6parserD2Ev(ptr noundef nonnull align 8 dereferenceable(328) %4) #29
  call void @llvm.lifetime.end.p0(i64 328, ptr nonnull %4) #29
  ret void

6:                                                ; preds = %3
  %7 = landingpad { ptr, i32 }
          cleanup
  call void @_ZN5boost20read_graphviz_detail6parserD2Ev(ptr noundef nonnull align 8 dereferenceable(328) %4) #29
  call void @llvm.lifetime.end.p0(i64 328, ptr nonnull %4) #29
  resume { ptr, i32 } %7
}